; Function Attrs: mustprogress nofree norecurse nosync nounwind willreturn memory(argmem: write) uwtable
define range(i32 -173, 2) i32 @wolfSSL_SetTmpEC_DHE_Sz(ptr noundef writeonly captures(address_is_null) %0, i16 noundef zeroext %1) local_unnamed_addr #5 {
  %3 = icmp eq ptr %0, null
  %4 = add i16 %1, -67
  %5 = icmp ult i16 %4, -39
  %or.cond7 = or i1 %3, %5
  br i1 %or.cond7, label %8, label %6

6:                                                ; preds = %2
  %7 = getelementptr inbounds nuw i8, ptr %0, i64 1192
  store i16 %1, ptr %7, align 8, !tbaa !232
  br label %8

8:                                                ; preds = %2, %6
  %.0 = phi i32 [ 1, %6 ], [ -173, %2 ]
  ret i32 %.0
}